(dp0
S'BornIn1142'
p1
S'I never asked for this!'
p2
sS'Jetsetlemming'
p3
S'i just wish there was some way of knowing what would happen if a mildly retarded republican governor from texas became president.'
p4
sS'XaiterMomobile'
p5
S'insufficient momo'
p6
s.