(dp0
S'JSL'
p1
S'heh'
p2
sS'BornIn1142'
p3
S'I never asked for this!'
p4
sS'Jetsetlemming'
p5
S'i just wish there was some way of knowing what would happen if a mildly retarded republican governor from texas became president.'
p6
sS'XaiterMomobile'
p7
S'insufficient momo'
p8
s.